target datalayout = "e-m:e-p270:32:32-p271:32:32-p272:64:64-i64:64-i128:128-f80:128-n8:16:32:64-S128"
target triple = "x86_64-unknown-linux-gnu"

%"class.std::__shared_count" = type { ptr }
%"class.OpenColorIO_v2_4dev::GammaOpData" = type { %"class.OpenColorIO_v2_4dev::OpData", i32, %"class.std::vector.8", %"class.std::vector.8", %"class.std::vector.8", %"class.std::vector.8" }
%"class.OpenColorIO_v2_4dev::OpData" = type { ptr, %"class.std::mutex", %"class.OpenColorIO_v2_4dev::FormatMetadataImpl" }
%"class.std::mutex" = type { %"class.std::__mutex_base" }
%"class.std::__mutex_base" = type { %union.pthread_mutex_t }
%union.pthread_mutex_t = type { %struct.__pthread_mutex_s }
%struct.__pthread_mutex_s = type { i32, i32, i32, i32, i32, i16, i16, %struct.__pthread_internal_list }
%struct.__pthread_internal_list = type { ptr, ptr }
%"class.OpenColorIO_v2_4dev::FormatMetadataImpl" = type { %"class.OpenColorIO_v2_4dev::FormatMetadata", %"class.std::__cxx11::basic_string", %"class.std::__cxx11::basic_string", %"class.std::vector", %"class.std::vector.3" }
%"class.OpenColorIO_v2_4dev::FormatMetadata" = type { ptr }
%"class.std::__cxx11::basic_string" = type { %"struct.std::__cxx11::basic_string<char>::_Alloc_hider", i64, %union.anon }
%"struct.std::__cxx11::basic_string<char>::_Alloc_hider" = type { ptr }
%union.anon = type { i64, [8 x i8] }
%"class.std::vector" = type { %"struct.std::_Vector_base" }
%"struct.std::_Vector_base" = type { %"struct.std::_Vector_base<std::pair<std::__cxx11::basic_string<char>, std::__cxx11::basic_string<char>>, std::allocator<std::pair<std::__cxx11::basic_string<char>, std::__cxx11::basic_string<char>>>>::_Vector_impl" }
%"struct.std::_Vector_base<std::pair<std::__cxx11::basic_string<char>, std::__cxx11::basic_string<char>>, std::allocator<std::pair<std::__cxx11::basic_string<char>, std::__cxx11::basic_string<char>>>>::_Vector_impl" = type { %"struct.std::_Vector_base<std::pair<std::__cxx11::basic_string<char>, std::__cxx11::basic_string<char>>, std::allocator<std::pair<std::__cxx11::basic_string<char>, std::__cxx11::basic_string<char>>>>::_Vector_impl_data" }
%"struct.std::_Vector_base<std::pair<std::__cxx11::basic_string<char>, std::__cxx11::basic_string<char>>, std::allocator<std::pair<std::__cxx11::basic_string<char>, std::__cxx11::basic_string<char>>>>::_Vector_impl_data" = type { ptr, ptr, ptr }
%"class.std::vector.3" = type { %"struct.std::_Vector_base.4" }
%"struct.std::_Vector_base.4" = type { %"struct.std::_Vector_base<OpenColorIO_v2_4dev::FormatMetadataImpl, std::allocator<OpenColorIO_v2_4dev::FormatMetadataImpl>>::_Vector_impl" }
%"struct.std::_Vector_base<OpenColorIO_v2_4dev::FormatMetadataImpl, std::allocator<OpenColorIO_v2_4dev::FormatMetadataImpl>>::_Vector_impl" = type { %"struct.std::_Vector_base<OpenColorIO_v2_4dev::FormatMetadataImpl, std::allocator<OpenColorIO_v2_4dev::FormatMetadataImpl>>::_Vector_impl_data" }
%"struct.std::_Vector_base<OpenColorIO_v2_4dev::FormatMetadataImpl, std::allocator<OpenColorIO_v2_4dev::FormatMetadataImpl>>::_Vector_impl_data" = type { ptr, ptr, ptr }
%"class.std::vector.8" = type { %"struct.std::_Vector_base.9" }
%"struct.std::_Vector_base.9" = type { %"struct.std::_Vector_base<double, std::allocator<double>>::_Vector_impl" }
%"struct.std::_Vector_base<double, std::allocator<double>>::_Vector_impl" = type { %"struct.std::_Vector_base<double, std::allocator<double>>::_Vector_impl_data" }
%"struct.std::_Vector_base<double, std::allocator<double>>::_Vector_impl_data" = type { ptr, ptr, ptr }
%"class.OpenColorIO_v2_4dev::GammaBasicOpCPU" = type { %"class.OpenColorIO_v2_4dev::OpCPU", float, float, float, float }
%"class.OpenColorIO_v2_4dev::OpCPU" = type { ptr }
%"class.std::__shared_ptr.14" = type { ptr, %"class.std::__shared_count" }

; Function Attrs: mustprogress nounwind uwtable
define linkonce_odr hidden noundef ptr @_ZNKSt12__shared_ptrIKN19OpenColorIO_v2_4dev11GammaOpDataELN9__gnu_cxx12_Lock_policyE2EE3getEv(ptr noundef nonnull align 8 dereferenceable(16) %this) #5 comdat align 2 {
entry:
  %this.addr = alloca ptr, align 8
  store ptr %this, ptr %this.addr, align 8
  %this1 = load ptr, ptr %this.addr, align 8
  %_M_ptr = getelementptr inbounds %"class.std::__shared_ptr.14", ptr %this1, i32 0, i32 0
  %0 = load ptr, ptr %_M_ptr, align 8
  ret ptr %0
}

; Function Attrs: mustprogress nounwind uwtable
define linkonce_odr hidden noundef ptr @_ZNKSt19__shared_ptr_accessIKN19OpenColorIO_v2_4dev11GammaOpDataELN9__gnu_cxx12_Lock_policyE2ELb0ELb0EE6_M_getEv(ptr noundef nonnull align 1 dereferenceable(1) %this) #5 comdat align 2 {
entry:
  %this.addr = alloca ptr, align 8
  store ptr %this, ptr %this.addr, align 8
  %this1 = load ptr, ptr %this.addr, align 8
  %call = call noundef ptr @_ZNKSt12__shared_ptrIKN19OpenColorIO_v2_4dev11GammaOpDataELN9__gnu_cxx12_Lock_policyE2EE3getEv(ptr noundef nonnull align 8 dereferenceable(16) %this1) #3
  ret ptr %call
}

; Function Attrs: mustprogress nounwind uwtable
define linkonce_odr hidden noundef nonnull align 8 dereferenceable(24) ptr @_ZNK19OpenColorIO_v2_4dev11GammaOpData14getAlphaParamsEv(ptr noundef nonnull align 8 dereferenceable(272) %this) #5 comdat align 2 {
entry:
  %this.addr = alloca ptr, align 8
  store ptr %this, ptr %this.addr, align 8
  %this1 = load ptr, ptr %this.addr, align 8
  %m_alphaParams = getelementptr inbounds %"class.OpenColorIO_v2_4dev::GammaOpData", ptr %this1, i32 0, i32 5
  ret ptr %m_alphaParams
}

; Function Attrs: mustprogress nounwind uwtable
define linkonce_odr hidden noundef nonnull align 8 dereferenceable(24) ptr @_ZNK19OpenColorIO_v2_4dev11GammaOpData13getBlueParamsEv(ptr noundef nonnull align 8 dereferenceable(272) %this) #5 comdat align 2 {
entry:
  %this.addr = alloca ptr, align 8
  store ptr %this, ptr %this.addr, align 8
  %this1 = load ptr, ptr %this.addr, align 8
  %m_blueParams = getelementptr inbounds %"class.OpenColorIO_v2_4dev::GammaOpData", ptr %this1, i32 0, i32 4
  ret ptr %m_blueParams
}

; Function Attrs: mustprogress nounwind uwtable
define linkonce_odr hidden noundef nonnull align 8 dereferenceable(24) ptr @_ZNK19OpenColorIO_v2_4dev11GammaOpData14getGreenParamsEv(ptr noundef nonnull align 8 dereferenceable(272) %this) #5 comdat align 2 {
entry:
  %this.addr = alloca ptr, align 8
  store ptr %this, ptr %this.addr, align 8
  %this1 = load ptr, ptr %this.addr, align 8
  %m_greenParams = getelementptr inbounds %"class.OpenColorIO_v2_4dev::GammaOpData", ptr %this1, i32 0, i32 3
  ret ptr %m_greenParams
}

; Function Attrs: mustprogress nounwind uwtable
define linkonce_odr hidden noundef nonnull align 8 dereferenceable(8) ptr @_ZNKSt6vectorIdSaIdEEixEm(ptr noundef nonnull align 8 dereferenceable(24) %this, i64 noundef %__n) #5 comdat align 2 {
entry:
  %this.addr = alloca ptr, align 8
  %__n.addr = alloca i64, align 8
  store ptr %this, ptr %this.addr, align 8
  store i64 %__n, ptr %__n.addr, align 8
  %this1 = load ptr, ptr %this.addr, align 8
  %_M_impl = getelementptr inbounds %"struct.std::_Vector_base.9", ptr %this1, i32 0, i32 0
  %_M_start = getelementptr inbounds %"struct.std::_Vector_base<double, std::allocator<double>>::_Vector_impl_data", ptr %_M_impl, i32 0, i32 0
  %0 = load ptr, ptr %_M_start, align 8
  %1 = load i64, ptr %__n.addr, align 8
  %add.ptr = getelementptr inbounds double, ptr %0, i64 %1
  ret ptr %add.ptr
}

; Function Attrs: mustprogress nounwind uwtable
define linkonce_odr hidden noundef nonnull align 8 dereferenceable(24) ptr @_ZNK19OpenColorIO_v2_4dev11GammaOpData12getRedParamsEv(ptr noundef nonnull align 8 dereferenceable(272) %this) #5 comdat align 2 {
entry:
  %this.addr = alloca ptr, align 8
  store ptr %this, ptr %this.addr, align 8
  %this1 = load ptr, ptr %this.addr, align 8
  %m_redParams = getelementptr inbounds %"class.OpenColorIO_v2_4dev::GammaOpData", ptr %this1, i32 0, i32 2
  ret ptr %m_redParams
}

; Function Attrs: mustprogress nounwind uwtable
define linkonce_odr hidden noundef i32 @_ZNK19OpenColorIO_v2_4dev11GammaOpData8getStyleEv(ptr noundef nonnull align 8 dereferenceable(272) %this) #5 comdat align 2 {
entry:
  %this.addr = alloca ptr, align 8
  store ptr %this, ptr %this.addr, align 8
  %this1 = load ptr, ptr %this.addr, align 8
  %m_style = getelementptr inbounds %"class.OpenColorIO_v2_4dev::GammaOpData", ptr %this1, i32 0, i32 1
  %0 = load i32, ptr %m_style, align 8
  ret i32 %0
}

; Function Attrs: mustprogress nounwind uwtable
define linkonce_odr hidden noundef ptr @_ZNKSt19__shared_ptr_accessIKN19OpenColorIO_v2_4dev11GammaOpDataELN9__gnu_cxx12_Lock_policyE2ELb0ELb0EEptEv(ptr noundef nonnull align 1 dereferenceable(1) %this) #5 comdat align 2 {
entry:
  %this.addr = alloca ptr, align 8
  store ptr %this, ptr %this.addr, align 8
  %this1 = load ptr, ptr %this.addr, align 8
  %call = call noundef ptr @_ZNKSt19__shared_ptr_accessIKN19OpenColorIO_v2_4dev11GammaOpDataELN9__gnu_cxx12_Lock_policyE2ELb0ELb0EE6_M_getEv(ptr noundef nonnull align 1 dereferenceable(1) %this1) #3
  ret ptr %call
}

; Function Attrs: mustprogress uwtable
define hidden void @_ZN19OpenColorIO_v2_4dev15GammaBasicOpCPU6updateERSt10shared_ptrIKNS_11GammaOpDataEE(ptr noundef nonnull align 8 dereferenceable(24) %this, ptr noundef nonnull align 8 dereferenceable(16) %gamma) #6 align 2 {
entry:
  %this.addr = alloca ptr, align 8
  %gamma.addr = alloca ptr, align 8
  %style = alloca i32, align 4
  %forward = alloca i8, align 1
  store ptr %this, ptr %this.addr, align 8
  store ptr %gamma, ptr %gamma.addr, align 8
  %this1 = load ptr, ptr %this.addr, align 8
  %0 = load ptr, ptr %gamma.addr, align 8
  %call = call noundef ptr @_ZNKSt19__shared_ptr_accessIKN19OpenColorIO_v2_4dev11GammaOpDataELN9__gnu_cxx12_Lock_policyE2ELb0ELb0EEptEv(ptr noundef nonnull align 1 dereferenceable(1) %0) #3
  %call2 = call noundef i32 @_ZNK19OpenColorIO_v2_4dev11GammaOpData8getStyleEv(ptr noundef nonnull align 8 dereferenceable(272) %call) #3
  store i32 %call2, ptr %style, align 4
  %1 = load i32, ptr %style, align 4
  %cmp = icmp eq i32 %1, 0
  br i1 %cmp, label %lor.end, label %lor.lhs.false

lor.lhs.false:                                    ; preds = %entry
  %2 = load i32, ptr %style, align 4
  %cmp3 = icmp eq i32 %2, 2
  br i1 %cmp3, label %lor.end, label %lor.rhs

lor.rhs:                                          ; preds = %lor.lhs.false
  %3 = load i32, ptr %style, align 4
  %cmp4 = icmp eq i32 %3, 4
  br label %lor.end

lor.end:                                          ; preds = %lor.rhs, %lor.lhs.false, %entry
  %4 = phi i1 [ true, %lor.lhs.false ], [ true, %entry ], [ %cmp4, %lor.rhs ]
  %frombool = zext i1 %4 to i8
  store i8 %frombool, ptr %forward, align 1
  %5 = load i8, ptr %forward, align 1
  %tobool = trunc i8 %5 to i1
  br i1 %tobool, label %cond.true, label %cond.false

cond.true:                                        ; preds = %lor.end
  %6 = load ptr, ptr %gamma.addr, align 8
  %call5 = call noundef ptr @_ZNKSt19__shared_ptr_accessIKN19OpenColorIO_v2_4dev11GammaOpDataELN9__gnu_cxx12_Lock_policyE2ELb0ELb0EEptEv(ptr noundef nonnull align 1 dereferenceable(1) %6) #3
  %call6 = call noundef nonnull align 8 dereferenceable(24) ptr @_ZNK19OpenColorIO_v2_4dev11GammaOpData12getRedParamsEv(ptr noundef nonnull align 8 dereferenceable(272) %call5)
  %call7 = call noundef nonnull align 8 dereferenceable(8) ptr @_ZNKSt6vectorIdSaIdEEixEm(ptr noundef nonnull align 8 dereferenceable(24) %call6, i64 noundef 0) #3
  %7 = load double, ptr %call7, align 8
  br label %cond.end

cond.false:                                       ; preds = %lor.end
  %8 = load ptr, ptr %gamma.addr, align 8
  %call8 = call noundef ptr @_ZNKSt19__shared_ptr_accessIKN19OpenColorIO_v2_4dev11GammaOpDataELN9__gnu_cxx12_Lock_policyE2ELb0ELb0EEptEv(ptr noundef nonnull align 1 dereferenceable(1) %8) #3
  %call9 = call noundef nonnull align 8 dereferenceable(24) ptr @_ZNK19OpenColorIO_v2_4dev11GammaOpData12getRedParamsEv(ptr noundef nonnull align 8 dereferenceable(272) %call8)
  %call10 = call noundef nonnull align 8 dereferenceable(8) ptr @_ZNKSt6vectorIdSaIdEEixEm(ptr noundef nonnull align 8 dereferenceable(24) %call9, i64 noundef 0) #3
  %9 = load double, ptr %call10, align 8
  %div = fdiv double 1.000000e+00, %9
  br label %cond.end

cond.end:                                         ; preds = %cond.false, %cond.true
  %cond = phi double [ %7, %cond.true ], [ %div, %cond.false ]
  %conv = fptrunc double %cond to float
  %m_redGamma = getelementptr inbounds %"class.OpenColorIO_v2_4dev::GammaBasicOpCPU", ptr %this1, i32 0, i32 1
  store float %conv, ptr %m_redGamma, align 8
  %10 = load i8, ptr %forward, align 1
  %tobool11 = trunc i8 %10 to i1
  br i1 %tobool11, label %cond.true12, label %cond.false16

cond.true12:                                      ; preds = %cond.end
  %11 = load ptr, ptr %gamma.addr, align 8
  %call13 = call noundef ptr @_ZNKSt19__shared_ptr_accessIKN19OpenColorIO_v2_4dev11GammaOpDataELN9__gnu_cxx12_Lock_policyE2ELb0ELb0EEptEv(ptr noundef nonnull align 1 dereferenceable(1) %11) #3
  %call14 = call noundef nonnull align 8 dereferenceable(24) ptr @_ZNK19OpenColorIO_v2_4dev11GammaOpData14getGreenParamsEv(ptr noundef nonnull align 8 dereferenceable(272) %call13)
  %call15 = call noundef nonnull align 8 dereferenceable(8) ptr @_ZNKSt6vectorIdSaIdEEixEm(ptr noundef nonnull align 8 dereferenceable(24) %call14, i64 noundef 0) #3
  %12 = load double, ptr %call15, align 8
  br label %cond.end21

cond.false16:                                     ; preds = %cond.end
  %13 = load ptr, ptr %gamma.addr, align 8
  %call17 = call noundef ptr @_ZNKSt19__shared_ptr_accessIKN19OpenColorIO_v2_4dev11GammaOpDataELN9__gnu_cxx12_Lock_policyE2ELb0ELb0EEptEv(ptr noundef nonnull align 1 dereferenceable(1) %13) #3
  %call18 = call noundef nonnull align 8 dereferenceable(24) ptr @_ZNK19OpenColorIO_v2_4dev11GammaOpData14getGreenParamsEv(ptr noundef nonnull align 8 dereferenceable(272) %call17)
  %call19 = call noundef nonnull align 8 dereferenceable(8) ptr @_ZNKSt6vectorIdSaIdEEixEm(ptr noundef nonnull align 8 dereferenceable(24) %call18, i64 noundef 0) #3
  %14 = load double, ptr %call19, align 8
  %div20 = fdiv double 1.000000e+00, %14
  br label %cond.end21

cond.end21:                                       ; preds = %cond.false16, %cond.true12
  %cond22 = phi double [ %12, %cond.true12 ], [ %div20, %cond.false16 ]
  %conv23 = fptrunc double %cond22 to float
  %m_grnGamma = getelementptr inbounds %"class.OpenColorIO_v2_4dev::GammaBasicOpCPU", ptr %this1, i32 0, i32 2
  store float %conv23, ptr %m_grnGamma, align 4
  %15 = load i8, ptr %forward, align 1
  %tobool24 = trunc i8 %15 to i1
  br i1 %tobool24, label %cond.true25, label %cond.false29

cond.true25:                                      ; preds = %cond.end21
  %16 = load ptr, ptr %gamma.addr, align 8
  %call26 = call noundef ptr @_ZNKSt19__shared_ptr_accessIKN19OpenColorIO_v2_4dev11GammaOpDataELN9__gnu_cxx12_Lock_policyE2ELb0ELb0EEptEv(ptr noundef nonnull align 1 dereferenceable(1) %16) #3
  %call27 = call noundef nonnull align 8 dereferenceable(24) ptr @_ZNK19OpenColorIO_v2_4dev11GammaOpData13getBlueParamsEv(ptr noundef nonnull align 8 dereferenceable(272) %call26)
  %call28 = call noundef nonnull align 8 dereferenceable(8) ptr @_ZNKSt6vectorIdSaIdEEixEm(ptr noundef nonnull align 8 dereferenceable(24) %call27, i64 noundef 0) #3
  %17 = load double, ptr %call28, align 8
  br label %cond.end34

cond.false29:                                     ; preds = %cond.end21
  %18 = load ptr, ptr %gamma.addr, align 8
  %call30 = call noundef ptr @_ZNKSt19__shared_ptr_accessIKN19OpenColorIO_v2_4dev11GammaOpDataELN9__gnu_cxx12_Lock_policyE2ELb0ELb0EEptEv(ptr noundef nonnull align 1 dereferenceable(1) %18) #3
  %call31 = call noundef nonnull align 8 dereferenceable(24) ptr @_ZNK19OpenColorIO_v2_4dev11GammaOpData13getBlueParamsEv(ptr noundef nonnull align 8 dereferenceable(272) %call30)
  %call32 = call noundef nonnull align 8 dereferenceable(8) ptr @_ZNKSt6vectorIdSaIdEEixEm(ptr noundef nonnull align 8 dereferenceable(24) %call31, i64 noundef 0) #3
  %19 = load double, ptr %call32, align 8
  %div33 = fdiv double 1.000000e+00, %19
  br label %cond.end34

cond.end34:                                       ; preds = %cond.false29, %cond.true25
  %cond35 = phi double [ %17, %cond.true25 ], [ %div33, %cond.false29 ]
  %conv36 = fptrunc double %cond35 to float
  %m_bluGamma = getelementptr inbounds %"class.OpenColorIO_v2_4dev::GammaBasicOpCPU", ptr %this1, i32 0, i32 3
  store float %conv36, ptr %m_bluGamma, align 8
  %20 = load i8, ptr %forward, align 1
  %tobool37 = trunc i8 %20 to i1
  br i1 %tobool37, label %cond.true38, label %cond.false42

cond.true38:                                      ; preds = %cond.end34
  %21 = load ptr, ptr %gamma.addr, align 8
  %call39 = call noundef ptr @_ZNKSt19__shared_ptr_accessIKN19OpenColorIO_v2_4dev11GammaOpDataELN9__gnu_cxx12_Lock_policyE2ELb0ELb0EEptEv(ptr noundef nonnull align 1 dereferenceable(1) %21) #3
  %call40 = call noundef nonnull align 8 dereferenceable(24) ptr @_ZNK19OpenColorIO_v2_4dev11GammaOpData14getAlphaParamsEv(ptr noundef nonnull align 8 dereferenceable(272) %call39)
  %call41 = call noundef nonnull align 8 dereferenceable(8) ptr @_ZNKSt6vectorIdSaIdEEixEm(ptr noundef nonnull align 8 dereferenceable(24) %call40, i64 noundef 0) #3
  %22 = load double, ptr %call41, align 8
  br label %cond.end47

cond.false42:                                     ; preds = %cond.end34
  %23 = load ptr, ptr %gamma.addr, align 8
  %call43 = call noundef ptr @_ZNKSt19__shared_ptr_accessIKN19OpenColorIO_v2_4dev11GammaOpDataELN9__gnu_cxx12_Lock_policyE2ELb0ELb0EEptEv(ptr noundef nonnull align 1 dereferenceable(1) %23) #3
  %call44 = call noundef nonnull align 8 dereferenceable(24) ptr @_ZNK19OpenColorIO_v2_4dev11GammaOpData14getAlphaParamsEv(ptr noundef nonnull align 8 dereferenceable(272) %call43)
  %call45 = call noundef nonnull align 8 dereferenceable(8) ptr @_ZNKSt6vectorIdSaIdEEixEm(ptr noundef nonnull align 8 dereferenceable(24) %call44, i64 noundef 0) #3
  %24 = load double, ptr %call45, align 8
  %div46 = fdiv double 1.000000e+00, %24
  br label %cond.end47

cond.end47:                                       ; preds = %cond.false42, %cond.true38
  %cond48 = phi double [ %22, %cond.true38 ], [ %div46, %cond.false42 ]
  %conv49 = fptrunc double %cond48 to float
  %m_alpGamma = getelementptr inbounds %"class.OpenColorIO_v2_4dev::GammaBasicOpCPU", ptr %this1, i32 0, i32 4
  store float %conv49, ptr %m_alpGamma, align 4
  ret void
}