; Function Attrs: mustprogress nofree norecurse nosync nounwind willreturn memory(read, argmem: readwrite, inaccessiblemem: none) uwtable
define hidden void @_ZN19OpenColorIO_v2_4dev15GammaBasicOpCPU6updateERSt10shared_ptrIKNS_11GammaOpDataEE(ptr nocapture noundef nonnull writeonly align 8 dereferenceable(24) %this, ptr nocapture noundef nonnull readonly align 8 dereferenceable(16) %gamma) local_unnamed_addr #4 align 2 {
entry:
  %0 = load ptr, ptr %gamma, align 8
  %m_style.i = getelementptr inbounds i8, ptr %0, i64 168
  %1 = load i32, ptr %m_style.i, align 8
  switch i32 %1, label %cond.false [
    i32 4, label %cond.true
    i32 2, label %cond.true
    i32 0, label %cond.true
  ]

cond.true:                                        ; preds = %entry, %entry, %entry
  %m_redParams.i = getelementptr inbounds i8, ptr %0, i64 176
  %2 = load ptr, ptr %m_redParams.i, align 8
  %3 = load double, ptr %2, align 8
  br label %cond.end

cond.false:                                       ; preds = %entry
  %m_redParams.i14 = getelementptr inbounds i8, ptr %0, i64 176
  %4 = load ptr, ptr %m_redParams.i14, align 8
  %5 = load double, ptr %4, align 8
  %div = fdiv double 1.000000e+00, %5
  br label %cond.end

cond.end:                                         ; preds = %cond.false, %cond.true
  %cond = phi double [ %3, %cond.true ], [ %div, %cond.false ]
  %conv = fptrunc double %cond to float
  %m_redGamma = getelementptr inbounds i8, ptr %this, i64 8
  store float %conv, ptr %m_redGamma, align 8
  switch i32 %1, label %cond.false16 [
    i32 4, label %cond.true12
    i32 2, label %cond.true12
    i32 0, label %cond.true12
  ]

cond.true12:                                      ; preds = %cond.end, %cond.end, %cond.end
  %6 = load ptr, ptr %gamma, align 8
  %m_greenParams.i = getelementptr inbounds i8, ptr %6, i64 200
  %7 = load ptr, ptr %m_greenParams.i, align 8
  %8 = load double, ptr %7, align 8
  br label %cond.end21

cond.false16:                                     ; preds = %cond.end
  %9 = load ptr, ptr %gamma, align 8
  %m_greenParams.i15 = getelementptr inbounds i8, ptr %9, i64 200
  %10 = load ptr, ptr %m_greenParams.i15, align 8
  %11 = load double, ptr %10, align 8
  %div20 = fdiv double 1.000000e+00, %11
  br label %cond.end21

cond.end21:                                       ; preds = %cond.false16, %cond.true12
  %cond22 = phi double [ %8, %cond.true12 ], [ %div20, %cond.false16 ]
  %conv23 = fptrunc double %cond22 to float
  %m_grnGamma = getelementptr inbounds i8, ptr %this, i64 12
  store float %conv23, ptr %m_grnGamma, align 4
  switch i32 %1, label %cond.false29 [
    i32 4, label %cond.true25
    i32 2, label %cond.true25
    i32 0, label %cond.true25
  ]

cond.true25:                                      ; preds = %cond.end21, %cond.end21, %cond.end21
  %12 = load ptr, ptr %gamma, align 8
  %m_blueParams.i = getelementptr inbounds i8, ptr %12, i64 224
  %13 = load ptr, ptr %m_blueParams.i, align 8
  %14 = load double, ptr %13, align 8
  br label %cond.end34

cond.false29:                                     ; preds = %cond.end21
  %15 = load ptr, ptr %gamma, align 8
  %m_blueParams.i16 = getelementptr inbounds i8, ptr %15, i64 224
  %16 = load ptr, ptr %m_blueParams.i16, align 8
  %17 = load double, ptr %16, align 8
  %div33 = fdiv double 1.000000e+00, %17
  br label %cond.end34

cond.end34:                                       ; preds = %cond.false29, %cond.true25
  %cond35 = phi double [ %14, %cond.true25 ], [ %div33, %cond.false29 ]
  %conv36 = fptrunc double %cond35 to float
  %m_bluGamma = getelementptr inbounds i8, ptr %this, i64 16
  store float %conv36, ptr %m_bluGamma, align 8
  switch i32 %1, label %cond.false42 [
    i32 4, label %cond.true38
    i32 2, label %cond.true38
    i32 0, label %cond.true38
  ]

cond.true38:                                      ; preds = %cond.end34, %cond.end34, %cond.end34
  %18 = load ptr, ptr %gamma, align 8
  %m_alphaParams.i = getelementptr inbounds i8, ptr %18, i64 248
  %19 = load ptr, ptr %m_alphaParams.i, align 8
  %20 = load double, ptr %19, align 8
  br label %cond.end47

cond.false42:                                     ; preds = %cond.end34
  %21 = load ptr, ptr %gamma, align 8
  %m_alphaParams.i17 = getelementptr inbounds i8, ptr %21, i64 248
  %22 = load ptr, ptr %m_alphaParams.i17, align 8
  %23 = load double, ptr %22, align 8
  %div46 = fdiv double 1.000000e+00, %23
  br label %cond.end47

cond.end47:                                       ; preds = %cond.false42, %cond.true38
  %cond48 = phi double [ %20, %cond.true38 ], [ %div46, %cond.false42 ]
  %conv49 = fptrunc double %cond48 to float
  %m_alpGamma = getelementptr inbounds i8, ptr %this, i64 20
  store float %conv49, ptr %m_alpGamma, align 4
  ret void
}